; ModuleID = '26/577.c'
source_filename = "26/577.c"
target datalayout = "e-m:e-p270:32:32-p271:32:32-p272:64:64-i64:64-f80:128-n8:16:32:64-S128"
target triple = "x86_64-pc-linux-gnu"

@.str = private unnamed_addr constant [3 x i8] c"%c\00", align 1
@.str.1 = private unnamed_addr constant [2 x i8] c" \00", align 1

; Function Attrs: noinline nounwind uwtable
define dso_local void @main() #0 {
  %1 = alloca [101 x i8], align 16
  %2 = alloca i8*, align 8
  %3 = getelementptr inbounds [101 x i8], [101 x i8]* %1, i64 0, i64 0
  %4 = call i32 (i8*, ...) bitcast (i32 (...)* @gets to i32 (i8*, ...)*)(i8* %3)
  %5 = getelementptr inbounds [101 x i8], [101 x i8]* %1, i64 0, i64 0
  store i8* %5, i8** %2, align 8
  br label %6

6:                                                ; preds = %39, %0
  %7 = load i8*, i8** %2, align 8
  %8 = load i8, i8* %7, align 1
  %9 = sext i8 %8 to i32
  %10 = icmp ne i32 %9, 0
  br i1 %10, label %11, label %40

11:                                               ; preds = %6
  %12 = load i8*, i8** %2, align 8
  %13 = load i8, i8* %12, align 1
  %14 = sext i8 %13 to i32
  %15 = icmp ne i32 %14, 32
  br i1 %15, label %16, label %23

16:                                               ; preds = %11
  %17 = load i8*, i8** %2, align 8
  %18 = load i8, i8* %17, align 1
  %19 = sext i8 %18 to i32
  %20 = call i32 (i8*, ...) @printf(i8* getelementptr inbounds ([3 x i8], [3 x i8]* @.str, i64 0, i64 0), i32 %19)
  %21 = load i8*, i8** %2, align 8
  %22 = getelementptr inbounds i8, i8* %21, i32 1
  store i8* %22, i8** %2, align 8
  br label %23

23:                                               ; preds = %16, %11
  %24 = load i8*, i8** %2, align 8
  %25 = load i8, i8* %24, align 1
  %26 = sext i8 %25 to i32
  %27 = icmp eq i32 %26, 32
  br i1 %27, label %28, label %39

28:                                               ; preds = %23
  %29 = call i32 (i8*, ...) @printf(i8* getelementptr inbounds ([2 x i8], [2 x i8]* @.str.1, i64 0, i64 0))
  br label %30

30:                                               ; preds = %33, %28
  %31 = load i8*, i8** %2, align 8
  %32 = getelementptr inbounds i8, i8* %31, i32 1
  store i8* %32, i8** %2, align 8
  br label %33

33:                                               ; preds = %30
  %34 = load i8*, i8** %2, align 8
  %35 = load i8, i8* %34, align 1
  %36 = sext i8 %35 to i32
  %37 = icmp eq i32 %36, 32
  br i1 %37, label %30, label %38

38:                                               ; preds = %33
  br label %39

39:                                               ; preds = %38, %23
  br label %6

40:                                               ; preds = %6
  ret void
}

declare dso_local i32 @gets(...) #1

declare dso_local i32 @printf(i8*, ...) #1


!llvm.module.flags = !{!0}
!llvm.ident = !{!1}

!0 = !{i32 1, !"wchar_size", i32 4}
!1 = !{!"clang version 10.0.0-4ubuntu1 "}
