; ModuleID = 'source-C-CXX/25/577.c'
source_filename = "source-C-CXX/25/577.c"
target datalayout = "e-m:e-p270:32:32-p271:32:32-p272:64:64-i64:64-f80:128-n8:16:32:64-S128"
target triple = "x86_64-pc-linux-gnu"

; Function Attrs: nounwind sspstrong uwtable
define dso_local void @main() local_unnamed_addr #0 {
  %1 = alloca [101 x i8], align 16
  %2 = getelementptr inbounds [101 x i8], [101 x i8]* %1, i64 0, i64 0
  call void @llvm.lifetime.start.p0i8(i64 101, i8* nonnull %2) #4
  %3 = call i32 (i8*, ...) bitcast (i32 (...)* @gets to i32 (i8*, ...)*)(i8* nonnull %2) #4
  %4 = load i8, i8* %2, align 16, !tbaa !5
  br label %5

5:                                                ; preds = %14, %0
  %6 = phi i8 [ %4, %0 ], [ %15, %14 ]
  %7 = phi i8* [ %2, %0 ], [ %16, %14 ]
  switch i8 %6, label %8 [
    i8 0, label %25
    i8 32, label %17
  ]

8:                                                ; preds = %5
  %9 = sext i8 %6 to i32
  %10 = call i32 @putchar(i32 %9)
  %11 = getelementptr inbounds i8, i8* %7, i64 1
  %12 = load i8, i8* %11, align 1, !tbaa !5
  %13 = icmp eq i8 %12, 32
  br i1 %13, label %17, label %14

14:                                               ; preds = %20, %8
  %15 = phi i8 [ %12, %8 ], [ %23, %20 ]
  %16 = phi i8* [ %11, %8 ], [ %22, %20 ]
  br label %5, !llvm.loop !8

17:                                               ; preds = %5, %8
  %18 = phi i8* [ %11, %8 ], [ %7, %5 ]
  %19 = call i32 @putchar(i32 32)
  br label %20

20:                                               ; preds = %20, %17
  %21 = phi i8* [ %18, %17 ], [ %22, %20 ]
  %22 = getelementptr inbounds i8, i8* %21, i64 1
  %23 = load i8, i8* %22, align 1, !tbaa !5
  %24 = icmp eq i8 %23, 32
  br i1 %24, label %20, label %14, !llvm.loop !8

25:                                               ; preds = %5
  call void @llvm.lifetime.end.p0i8(i64 101, i8* nonnull %2) #4
  ret void
}

; Function Attrs: argmemonly mustprogress nofree nosync nounwind willreturn
declare void @llvm.lifetime.start.p0i8(i64 immarg, i8* nocapture) #1

declare i32 @gets(...) local_unnamed_addr #2

; Function Attrs: argmemonly mustprogress nofree nosync nounwind willreturn
declare void @llvm.lifetime.end.p0i8(i64 immarg, i8* nocapture) #1

; Function Attrs: nofree nounwind
declare noundef i32 @putchar(i32 noundef) local_unnamed_addr #3


!llvm.module.flags = !{!0, !1, !2, !3}
!llvm.ident = !{!4}

!0 = !{i32 1, !"wchar_size", i32 4}
!1 = !{i32 7, !"PIC Level", i32 2}
!2 = !{i32 7, !"PIE Level", i32 2}
!3 = !{i32 7, !"uwtable", i32 1}
!4 = !{!"clang version 13.0.0"}
!5 = !{!6, !6, i64 0}
!6 = !{!"omnipotent char", !7, i64 0}
!7 = !{!"Simple C/C++ TBAA"}
!8 = distinct !{!8, !9}
!9 = !{!"llvm.loop.mustprogress"}
